CCS PCM C Compiler, Version 5.076, 56587               20-Sep-21 17:07

               Filename:   C:\Users\CRISTRONICOS\Documents\1PROGRAMACIÓN-ELECTRÓNICA\2.uC PIC\LEARNING\4.Secuencia_Leds\Secuencia leds.lst

               ROM used:   109 words (1%)
                           Largest free fragment is 2048
               RAM used:   5 (1%) at main() level
                           6 (2%) worst case
               Stack used: 1 locations
               Stack size: 8

*
0000:  MOVLW  00
0001:  MOVWF  0A
0002:  GOTO   019
0003:  NOP
.................... #include<16F887.h> 
.................... //////////// Standard Header file for the PIC16F887 device //////////////// 
.................... /////////////////////////////////////////////////////////////////////////// 
.................... ////        (C) Copyright 1996, 2014 Custom Computer Services          //// 
.................... //// This source code may only be used by licensed users of the CCS C  //// 
.................... //// compiler.  This source code may only be distributed to other      //// 
.................... //// licensed users of the CCS C compiler.  No other use, reproduction //// 
.................... //// or distribution is permitted without written permission.          //// 
.................... //// Derivative programs created using this software in object code    //// 
.................... //// form are not restricted in any way.                               //// 
.................... /////////////////////////////////////////////////////////////////////////// 
.................... #device PIC16F887 
....................  
.................... #list 
....................  
.................... #use delay(clock=4000000) 
0004:  MOVLW  21
0005:  MOVWF  04
0006:  BCF    03.7
0007:  MOVF   00,W
0008:  BTFSC  03.2
0009:  GOTO   018
000A:  MOVLW  01
000B:  MOVWF  78
000C:  CLRF   77
000D:  DECFSZ 77,F
000E:  GOTO   00D
000F:  DECFSZ 78,F
0010:  GOTO   00C
0011:  MOVLW  4A
0012:  MOVWF  77
0013:  DECFSZ 77,F
0014:  GOTO   013
0015:  GOTO   016
0016:  DECFSZ 00,F
0017:  GOTO   00A
0018:  RETURN
.................... #fuses xt,noprotect,nowdt,nobrownout,put,nolvp 
.................... #byte portb=6 
....................  
.................... void main() 
0019:  MOVF   03,W
001A:  ANDLW  1F
001B:  MOVWF  03
001C:  BSF    03.5
001D:  BSF    03.6
001E:  MOVF   09,W
001F:  ANDLW  C0
0020:  MOVWF  09
0021:  BCF    03.6
0022:  BCF    1F.4
0023:  BCF    1F.5
0024:  MOVLW  00
0025:  BSF    03.6
0026:  MOVWF  08
0027:  BCF    03.5
0028:  CLRF   07
0029:  CLRF   08
002A:  CLRF   09
002B:  BCF    03.7
.................... { 
....................   set_tris_b(0b00000000); 
002C:  MOVLW  00
002D:  BSF    03.5
002E:  BCF    03.6
002F:  MOVWF  06
....................   portb=0;//comienzan apagados los pines del puerto B 
0030:  BCF    03.5
0031:  CLRF   06
....................   while(true) 
....................   { 
....................   portb=0b10000000;//Inicia RB7 encendido 
0032:  MOVLW  80
0033:  MOVWF  06
....................     delay_ms(250); 
0034:  MOVLW  FA
0035:  MOVWF  21
0036:  CALL   004
....................     while(!bit_test(portb,0))//Mientras RB0 este apagado 
0037:  BTFSC  06.0
0038:  GOTO   03F
....................     {portb=portb>>1;    //Empiece a rotar en una unidad hacia la DERECHA 
0039:  BCF    03.0
003A:  RRF    06,F
....................      delay_ms(250); 
003B:  MOVLW  FA
003C:  MOVWF  21
003D:  CALL   004
003E:  GOTO   037
....................     } 
....................       
....................     while(!bit_test(portb,7))//Mientras RB7 este apagado 
003F:  BTFSC  06.7
0040:  GOTO   047
....................     {portb=portb<<1;    //Empiece a rotar en una unidad hacia la IZQUIERDA 
0041:  BCF    03.0
0042:  RLF    06,F
....................      delay_ms(250); 
0043:  MOVLW  FA
0044:  MOVWF  21
0045:  CALL   004
0046:  GOTO   03F
....................     }  
....................      portb=0b10000001; 
0047:  MOVLW  81
0048:  MOVWF  06
....................     delay_ms(250); 
0049:  MOVLW  FA
004A:  MOVWF  21
004B:  CALL   004
....................     portb=0b00000000; 
004C:  CLRF   06
....................     delay_ms(250); 
004D:  MOVLW  FA
004E:  MOVWF  21
004F:  CALL   004
....................     portb=0b01000010; 
0050:  MOVLW  42
0051:  MOVWF  06
....................     delay_ms(250); 
0052:  MOVLW  FA
0053:  MOVWF  21
0054:  CALL   004
....................     portb=0b00000000; 
0055:  CLRF   06
....................     delay_ms(250); 
0056:  MOVLW  FA
0057:  MOVWF  21
0058:  CALL   004
....................     portb=0b00100100; 
0059:  MOVLW  24
005A:  MOVWF  06
....................     delay_ms(250); 
005B:  MOVLW  FA
005C:  MOVWF  21
005D:  CALL   004
....................     portb=0b00000000; 
005E:  CLRF   06
....................     delay_ms(250); 
005F:  MOVLW  FA
0060:  MOVWF  21
0061:  CALL   004
....................     portb=0b00011000;//Inicia encendido  
0062:  MOVLW  18
0063:  MOVWF  06
....................     delay_ms(250); 
0064:  MOVLW  FA
0065:  MOVWF  21
0066:  CALL   004
....................     portb=0b00000000; 
0067:  CLRF   06
....................     delay_ms(250); 
0068:  MOVLW  FA
0069:  MOVWF  21
006A:  CALL   004
006B:  GOTO   032
....................      
....................      
....................     
....................   }   
.................... } 
006C:  SLEEP

Configuration Fuses:
   Word  1: 2CE1   XT NOWDT PUT MCLR NOPROTECT NOCPD NOBROWNOUT IESO FCMEN NOLVP NODEBUG
   Word  2: 3FFF   BORV40 NOWRT
